target datalayout = "e-m:e-p270:32:32-p271:32:32-p272:64:64-i64:64-i128:128-f80:128-n8:16:32:64-S128"
target triple = "x86_64-unknown-linux-gnu"

%"class.std::basic_string_view" = type { i64, ptr }
%"class.(anonymous namespace)::UsageReportingTest" = type { %"class.testing::Test", %"class.absl::FlagSaver" }
%"class.testing::Test" = type { ptr, %"class.std::unique_ptr" }
%"class.std::unique_ptr" = type { %"struct.std::__uniq_ptr_data" }
%"struct.std::__uniq_ptr_data" = type { %"class.std::__uniq_ptr_impl" }
%"class.std::__uniq_ptr_impl" = type { %"class.std::tuple" }
%"class.std::tuple" = type { %"struct.std::_Tuple_impl" }
%"struct.std::_Tuple_impl" = type { %"struct.std::_Head_base.40" }
%"struct.std::_Head_base.40" = type { ptr }
%"class.absl::FlagSaver" = type { ptr }

@.str.54 = private unnamed_addr constant [1 x i8] zeroinitializer, align 1

; Function Attrs: mustprogress nounwind uwtable
define linkonce_odr dso_local noundef i64 @_ZNSt11char_traitsIcE6lengthEPKc(ptr noundef %__s) #5 comdat align 2 {
entry:
  %__s.addr = alloca ptr, align 8
  store ptr %__s, ptr %__s.addr, align 8
  %0 = load ptr, ptr %__s.addr, align 8
  %call = call i64 @strlen(ptr noundef %0) #3
  ret i64 %call
}

; Function Attrs: mustprogress nounwind uwtable
define linkonce_odr dso_local void @_ZNSt17basic_string_viewIcSt11char_traitsIcEEC2EPKc(ptr noundef nonnull align 8 dereferenceable(16) %this, ptr noundef nonnull %__str) unnamed_addr #5 comdat align 2 {
entry:
  %this.addr = alloca ptr, align 8
  %__str.addr = alloca ptr, align 8
  store ptr %this, ptr %this.addr, align 8
  store ptr %__str, ptr %__str.addr, align 8
  %this1 = load ptr, ptr %this.addr, align 8
  %_M_len = getelementptr inbounds %"class.std::basic_string_view", ptr %this1, i32 0, i32 0
  %0 = load ptr, ptr %__str.addr, align 8
  %call = call noundef i64 @_ZNSt11char_traitsIcE6lengthEPKc(ptr noundef %0)
  store i64 %call, ptr %_M_len, align 8
  %_M_str = getelementptr inbounds %"class.std::basic_string_view", ptr %this1, i32 0, i32 1
  %1 = load ptr, ptr %__str.addr, align 8
  store ptr %1, ptr %_M_str, align 8
  ret void
}

; Function Attrs: mustprogress nounwind uwtable
define internal void @_ZN12_GLOBAL__N_118UsageReportingTestD2Ev(ptr noundef nonnull align 8 dereferenceable(24) %this) unnamed_addr #5 align 2 personality ptr @__gxx_personality_v0 {
entry:
  %this.addr = alloca ptr, align 8
  %agg.tmp = alloca %"class.std::basic_string_view", align 8
  store ptr %this, ptr %this.addr, align 8
  %this1 = load ptr, ptr %this.addr, align 8
  store ptr getelementptr inbounds ({ [8 x ptr] }, ptr @_ZTVN12_GLOBAL__N_118UsageReportingTestE, i32 0, i32 0, i32 2), ptr %this1, align 8
  invoke void @_ZN4absl14flags_internal16SetFlagsHelpModeENS0_8HelpModeE(i32 noundef 0)
          to label %invoke.cont unwind label %terminate.lpad

invoke.cont:                                      ; preds = %entry
  call void @_ZNSt17basic_string_viewIcSt11char_traitsIcEEC2EPKc(ptr noundef nonnull align 8 dereferenceable(16) %agg.tmp, ptr noundef @.str.54) #3
  %0 = getelementptr inbounds { i64, ptr }, ptr %agg.tmp, i32 0, i32 0
  %1 = load i64, ptr %0, align 8
  %2 = getelementptr inbounds { i64, ptr }, ptr %agg.tmp, i32 0, i32 1
  %3 = load ptr, ptr %2, align 8
  invoke void @_ZN4absl14flags_internal23SetFlagsHelpMatchSubstrESt17basic_string_viewIcSt11char_traitsIcEE(i64 %1, ptr %3)
          to label %invoke.cont2 unwind label %terminate.lpad

invoke.cont2:                                     ; preds = %invoke.cont
  invoke void @_ZN4absl14flags_internal18SetFlagsHelpFormatENS0_10HelpFormatE(i32 noundef 0)
          to label %invoke.cont3 unwind label %terminate.lpad

invoke.cont3:                                     ; preds = %invoke.cont2
  %flag_saver_ = getelementptr inbounds %"class.(anonymous namespace)::UsageReportingTest", ptr %this1, i32 0, i32 1
  call void @_ZN4absl9FlagSaverD1Ev(ptr noundef nonnull align 8 dereferenceable(8) %flag_saver_) #3
  call void @_ZN7testing4TestD2Ev(ptr noundef nonnull align 8 dereferenceable(16) %this1) #3
  ret void

terminate.lpad:                                   ; preds = %invoke.cont2, %invoke.cont, %entry
  %4 = landingpad { ptr, i32 }
          catch ptr null
  %5 = extractvalue { ptr, i32 } %4, 0
  call void @__clang_call_terminate(ptr %5) #18
  unreachable
}

; Function Attrs: mustprogress nounwind uwtable
define internal void @_ZN12_GLOBAL__N_151UsageReportingTest_TestUsageFlag_help_one_flag_TestD2Ev(ptr noundef nonnull align 8 dereferenceable(24) %this) unnamed_addr #5 align 2 {
entry:
  %this.addr = alloca ptr, align 8
  store ptr %this, ptr %this.addr, align 8
  %this1 = load ptr, ptr %this.addr, align 8
  call void @_ZN12_GLOBAL__N_118UsageReportingTestD2Ev(ptr noundef nonnull align 8 dereferenceable(24) %this1) #3
  ret void
}